target datalayout = "e-m:e-p270:32:32-p271:32:32-p272:64:64-i64:64-i128:128-f80:128-n8:16:32:64-S128"
target triple = "x86_64-pc-linux-gnu"

%"class.std::__shared_count" = type { ptr }
%"class.gmx::analysismodules::(anonymous namespace)::Rdf" = type <{ %"class.gmx::TrajectoryAnalysisModule", %"class.std::__cxx11::basic_string", %"class.std::__cxx11::basic_string", i32, [4 x i8], %"class.gmx::AnalysisDataPlotSettings", %"class.gmx::Selection", %"class.std::vector", %"class.gmx::AnalysisData", %"class.gmx::AnalysisData", %"class.std::shared_ptr", %"class.std::shared_ptr.29", %"class.gmx::AnalysisNeighborhood", ptr, double, double, double, i32, i8, i8, i8, i8, float, float, i32, [4 x i8] }>
%"class.gmx::TrajectoryAnalysisModule" = type { ptr, %"class.std::unique_ptr.2" }
%"class.std::unique_ptr.2" = type { %"struct.std::__uniq_ptr_data.3" }
%"struct.std::__uniq_ptr_data.3" = type { %"class.std::__uniq_ptr_impl.4" }
%"class.std::__uniq_ptr_impl.4" = type { %"class.std::tuple.5" }
%"class.std::tuple.5" = type { %"struct.std::_Tuple_impl.6" }
%"struct.std::_Tuple_impl.6" = type { %"struct.std::_Head_base.9" }
%"struct.std::_Head_base.9" = type { ptr }
%"class.std::__cxx11::basic_string" = type { %"struct.std::__cxx11::basic_string<char>::_Alloc_hider", i64, %union.anon }
%"struct.std::__cxx11::basic_string<char>::_Alloc_hider" = type { ptr }
%union.anon = type { i64, [8 x i8] }
%"class.gmx::AnalysisDataPlotSettings" = type { ptr, i32, i32 }
%"class.gmx::Selection" = type { ptr }
%"class.std::vector" = type { %"struct.std::_Vector_base" }
%"struct.std::_Vector_base" = type { %"struct.std::_Vector_base<gmx::Selection, std::allocator<gmx::Selection>>::_Vector_impl" }
%"struct.std::_Vector_base<gmx::Selection, std::allocator<gmx::Selection>>::_Vector_impl" = type { %"struct.std::_Vector_base<gmx::Selection, std::allocator<gmx::Selection>>::_Vector_impl_data" }
%"struct.std::_Vector_base<gmx::Selection, std::allocator<gmx::Selection>>::_Vector_impl_data" = type { ptr, ptr, ptr }
%"class.gmx::AnalysisData" = type { %"class.gmx::AbstractAnalysisData", %"class.std::unique_ptr.21" }
%"class.gmx::AbstractAnalysisData" = type { ptr, %"class.std::unique_ptr.13" }
%"class.std::unique_ptr.13" = type { %"struct.std::__uniq_ptr_data.14" }
%"struct.std::__uniq_ptr_data.14" = type { %"class.std::__uniq_ptr_impl.15" }
%"class.std::__uniq_ptr_impl.15" = type { %"class.std::tuple.16" }
%"class.std::tuple.16" = type { %"struct.std::_Tuple_impl.17" }
%"struct.std::_Tuple_impl.17" = type { %"struct.std::_Head_base.20" }
%"struct.std::_Head_base.20" = type { ptr }
%"class.std::unique_ptr.21" = type { %"struct.std::__uniq_ptr_data.22" }
%"struct.std::__uniq_ptr_data.22" = type { %"class.std::__uniq_ptr_impl.23" }
%"class.std::__uniq_ptr_impl.23" = type { %"class.std::tuple.24" }
%"class.std::tuple.24" = type { %"struct.std::_Tuple_impl.25" }
%"struct.std::_Tuple_impl.25" = type { %"struct.std::_Head_base.28" }
%"struct.std::_Head_base.28" = type { ptr }
%"class.std::shared_ptr" = type { %"class.std::__shared_ptr" }
%"class.std::__shared_ptr" = type { ptr, %"class.std::__shared_count" }
%"class.std::shared_ptr.29" = type { %"class.std::__shared_ptr.30" }
%"class.std::__shared_ptr.30" = type { ptr, %"class.std::__shared_count" }
%"class.gmx::AnalysisNeighborhood" = type { %"class.std::unique_ptr.32" }
%"class.std::unique_ptr.32" = type { %"struct.std::__uniq_ptr_data.33" }
%"struct.std::__uniq_ptr_data.33" = type { %"class.std::__uniq_ptr_impl.34" }
%"class.std::__uniq_ptr_impl.34" = type { %"class.std::tuple.35" }
%"class.std::tuple.35" = type { %"struct.std::_Tuple_impl.36" }
%"struct.std::_Tuple_impl.36" = type { %"struct.std::_Head_base.39" }
%"struct.std::_Head_base.39" = type { ptr }
%"class.gmx::AnalysisHistogramSettings" = type <{ float, float, float, float, i32, i8, [3 x i8] }>
%"class.gmx::AnalysisHistogramSettingsInitializer" = type <{ float, float, float, i32, i8, i8, i8, i8 }>
%struct.t_trxframe = type { i32, i8, i32, i8, i64, i8, float, i8, i8, float, i32, i8, ptr, i8, float, i8, ptr, i8, ptr, i8, ptr, i8, [3 x [3 x float]], i8, i32, i8, ptr }

; Function Attrs: mustprogress nounwind uwtable
define linkonce_odr noundef ptr @_ZNKSt12__shared_ptrIN3gmx33AnalysisDataSimpleHistogramModuleELN9__gnu_cxx12_Lock_policyE2EE3getEv(ptr noundef nonnull align 8 dereferenceable(16) %0) #3 comdat align 2 {
  %2 = alloca ptr, align 8
  store ptr %0, ptr %2, align 8
  %3 = load ptr, ptr %2, align 8
  %4 = getelementptr inbounds %"class.std::__shared_ptr", ptr %3, i32 0, i32 0
  %5 = load ptr, ptr %4, align 8
  ret ptr %5
}

; Function Attrs: mustprogress nounwind uwtable
define linkonce_odr noundef nonnull align 4 dereferenceable(19) ptr @_ZN3gmx36AnalysisHistogramSettingsInitializer5rangeEff(ptr noundef nonnull align 4 dereferenceable(19) %0, float noundef %1, float noundef %2) #3 comdat align 2 {
  %4 = alloca ptr, align 8
  %5 = alloca float, align 4
  %6 = alloca float, align 4
  store ptr %0, ptr %4, align 8
  store float %1, ptr %5, align 4
  store float %2, ptr %6, align 4
  %7 = load ptr, ptr %4, align 8
  %8 = load float, ptr %5, align 4
  %9 = getelementptr inbounds %"class.gmx::AnalysisHistogramSettingsInitializer", ptr %7, i32 0, i32 0
  store float %8, ptr %9, align 4
  %10 = load float, ptr %6, align 4
  %11 = getelementptr inbounds %"class.gmx::AnalysisHistogramSettingsInitializer", ptr %7, i32 0, i32 1
  store float %10, ptr %11, align 4
  ret ptr %7
}

; Function Attrs: mustprogress nounwind uwtable
define linkonce_odr noundef ptr @_ZNKSt19__shared_ptr_accessIN3gmx33AnalysisDataSimpleHistogramModuleELN9__gnu_cxx12_Lock_policyE2ELb0ELb0EE6_M_getEv(ptr noundef nonnull align 1 dereferenceable(1) %0) #3 comdat align 2 {
  %2 = alloca ptr, align 8
  store ptr %0, ptr %2, align 8
  %3 = load ptr, ptr %2, align 8
  %4 = call noundef ptr @_ZNKSt12__shared_ptrIN3gmx33AnalysisDataSimpleHistogramModuleELN9__gnu_cxx12_Lock_policyE2EE3getEv(ptr noundef nonnull align 8 dereferenceable(16) %3) #14
  ret ptr %4
}

; Function Attrs: mustprogress nounwind uwtable
define linkonce_odr noundef float @_Zli5_reale(x86_fp80 noundef %0) #3 comdat {
  %2 = alloca x86_fp80, align 16
  store x86_fp80 %0, ptr %2, align 16
  %3 = load x86_fp80, ptr %2, align 16
  %4 = fptrunc x86_fp80 %3 to float
  ret float %4
}

; Function Attrs: mustprogress nounwind uwtable
define internal void @_ZL9copy_rvecPKfPf(ptr noundef %0, ptr noundef %1) #3 {
  %3 = alloca ptr, align 8
  %4 = alloca ptr, align 8
  store ptr %0, ptr %3, align 8
  store ptr %1, ptr %4, align 8
  %5 = load ptr, ptr %3, align 8
  %6 = getelementptr inbounds float, ptr %5, i64 0
  %7 = load float, ptr %6, align 4
  %8 = load ptr, ptr %4, align 8
  %9 = getelementptr inbounds float, ptr %8, i64 0
  store float %7, ptr %9, align 4
  %10 = load ptr, ptr %3, align 8
  %11 = getelementptr inbounds float, ptr %10, i64 1
  %12 = load float, ptr %11, align 4
  %13 = load ptr, ptr %4, align 8
  %14 = getelementptr inbounds float, ptr %13, i64 1
  store float %12, ptr %14, align 4
  %15 = load ptr, ptr %3, align 8
  %16 = getelementptr inbounds float, ptr %15, i64 2
  %17 = load float, ptr %16, align 4
  %18 = load ptr, ptr %4, align 8
  %19 = getelementptr inbounds float, ptr %18, i64 2
  store float %17, ptr %19, align 4
  ret void
}

; Function Attrs: mustprogress nounwind uwtable
define linkonce_odr noundef nonnull align 4 dereferenceable(19) ptr @_ZN3gmx36AnalysisHistogramSettingsInitializer8binWidthEf(ptr noundef nonnull align 4 dereferenceable(19) %0, float noundef %1) #3 comdat align 2 {
  %3 = alloca ptr, align 8
  %4 = alloca float, align 4
  store ptr %0, ptr %3, align 8
  store float %1, ptr %4, align 4
  %5 = load ptr, ptr %3, align 8
  %6 = load float, ptr %4, align 4
  %7 = getelementptr inbounds %"class.gmx::AnalysisHistogramSettingsInitializer", ptr %5, i32 0, i32 2
  store float %6, ptr %7, align 4
  ret ptr %5
}

; Function Attrs: mustprogress uwtable
define linkonce_odr void @_ZN3gmx18histogramFromRangeEff(ptr dead_on_unwind noalias writable sret(%"class.gmx::AnalysisHistogramSettingsInitializer") align 4 %0, float noundef %1, float noundef %2) #0 comdat {
  %4 = alloca float, align 4
  %5 = alloca float, align 4
  %6 = alloca %"class.gmx::AnalysisHistogramSettingsInitializer", align 4
  store float %1, ptr %4, align 4
  store float %2, ptr %5, align 4
  call void @_ZN3gmx36AnalysisHistogramSettingsInitializerC1Ev(ptr noundef nonnull align 4 dereferenceable(19) %6)
  %7 = load float, ptr %4, align 4
  %8 = load float, ptr %5, align 4
  %9 = call noundef nonnull align 4 dereferenceable(19) ptr @_ZN3gmx36AnalysisHistogramSettingsInitializer5rangeEff(ptr noundef nonnull align 4 dereferenceable(19) %6, float noundef %7, float noundef %8)
  call void @llvm.memcpy.p0.p0.i64(ptr align 4 %0, ptr align 4 %9, i64 20, i1 false)
  ret void
}

; Function Attrs: mustprogress nounwind uwtable
define linkonce_odr noundef ptr @_ZNKSt19__shared_ptr_accessIN3gmx33AnalysisDataSimpleHistogramModuleELN9__gnu_cxx12_Lock_policyE2ELb0ELb0EEptEv(ptr noundef nonnull align 1 dereferenceable(1) %0) #3 comdat align 2 {
  %2 = alloca ptr, align 8
  store ptr %0, ptr %2, align 8
  %3 = load ptr, ptr %2, align 8
  %4 = call noundef ptr @_ZNKSt19__shared_ptr_accessIN3gmx33AnalysisDataSimpleHistogramModuleELN9__gnu_cxx12_Lock_policyE2ELb0ELb0EE6_M_getEv(ptr noundef nonnull align 1 dereferenceable(1) %3) #14
  ret ptr %4
}

; Function Attrs: mustprogress nounwind uwtable
define linkonce_odr noundef double @_ZN3gmx6squareIdEET_S1_(double noundef %0) #3 comdat {
  %2 = alloca double, align 8
  store double %0, ptr %2, align 8
  %3 = load double, ptr %2, align 8
  %4 = load double, ptr %2, align 8
  %5 = fmul double %3, %4
  ret double %5
}

; Function Attrs: mustprogress uwtable
define internal void @_ZL10clear_rvecPf(ptr noundef %0) #0 {
  %2 = alloca ptr, align 8
  store ptr %0, ptr %2, align 8
  %3 = call noundef float @_Zli5_reale(x86_fp80 noundef 0xK00000000000000000000)
  %4 = load ptr, ptr %2, align 8
  %5 = getelementptr inbounds float, ptr %4, i64 0
  store float %3, ptr %5, align 4
  %6 = call noundef float @_Zli5_reale(x86_fp80 noundef 0xK00000000000000000000)
  %7 = load ptr, ptr %2, align 8
  %8 = getelementptr inbounds float, ptr %7, i64 1
  store float %6, ptr %8, align 4
  %9 = call noundef float @_Zli5_reale(x86_fp80 noundef 0xK00000000000000000000)
  %10 = load ptr, ptr %2, align 8
  %11 = getelementptr inbounds float, ptr %10, i64 2
  store float %9, ptr %11, align 4
  ret void
}

; Function Attrs: mustprogress nounwind uwtable
define linkonce_odr noundef nonnull align 4 dereferenceable(4) ptr @_ZSt3maxIfERKT_S2_S2_(ptr noundef nonnull align 4 dereferenceable(4) %0, ptr noundef nonnull align 4 dereferenceable(4) %1) #3 comdat {
  %3 = alloca ptr, align 8
  %4 = alloca ptr, align 8
  %5 = alloca ptr, align 8
  store ptr %0, ptr %4, align 8
  store ptr %1, ptr %5, align 8
  %6 = load ptr, ptr %4, align 8
  %7 = load float, ptr %6, align 4
  %8 = load ptr, ptr %5, align 8
  %9 = load float, ptr %8, align 4
  %10 = fcmp olt float %7, %9
  br i1 %10, label %11, label %13

11:                                               ; preds = %2
  %12 = load ptr, ptr %5, align 8
  store ptr %12, ptr %3, align 8
  br label %15

13:                                               ; preds = %2
  %14 = load ptr, ptr %4, align 8
  store ptr %14, ptr %3, align 8
  br label %15

15:                                               ; preds = %13, %11
  %16 = load ptr, ptr %3, align 8
  ret ptr %16
}

; Function Attrs: mustprogress uwtable
define internal void @_ZL8copy_matPA3_KfPA3_f(ptr noundef %0, ptr noundef %1) #0 {
  %3 = alloca ptr, align 8
  %4 = alloca ptr, align 8
  store ptr %0, ptr %3, align 8
  store ptr %1, ptr %4, align 8
  %5 = load ptr, ptr %3, align 8
  %6 = getelementptr inbounds [3 x float], ptr %5, i64 0
  %7 = getelementptr inbounds [3 x float], ptr %6, i64 0, i64 0
  %8 = load ptr, ptr %4, align 8
  %9 = getelementptr inbounds [3 x float], ptr %8, i64 0
  %10 = getelementptr inbounds [3 x float], ptr %9, i64 0, i64 0
  call void @_ZL9copy_rvecPKfPf(ptr noundef %7, ptr noundef %10)
  %11 = load ptr, ptr %3, align 8
  %12 = getelementptr inbounds [3 x float], ptr %11, i64 1
  %13 = getelementptr inbounds [3 x float], ptr %12, i64 0, i64 0
  %14 = load ptr, ptr %4, align 8
  %15 = getelementptr inbounds [3 x float], ptr %14, i64 1
  %16 = getelementptr inbounds [3 x float], ptr %15, i64 0, i64 0
  call void @_ZL9copy_rvecPKfPf(ptr noundef %13, ptr noundef %16)
  %17 = load ptr, ptr %3, align 8
  %18 = getelementptr inbounds [3 x float], ptr %17, i64 2
  %19 = getelementptr inbounds [3 x float], ptr %18, i64 0, i64 0
  %20 = load ptr, ptr %4, align 8
  %21 = getelementptr inbounds [3 x float], ptr %20, i64 2
  %22 = getelementptr inbounds [3 x float], ptr %21, i64 0, i64 0
  call void @_ZL9copy_rvecPKfPf(ptr noundef %19, ptr noundef %22)
  ret void
}

; Function Attrs: mustprogress uwtable
define internal void @_ZN3gmx15analysismodules12_GLOBAL__N_13Rdf19initAfterFirstFrameERKNS_26TrajectoryAnalysisSettingsERK10t_trxframe(ptr noundef nonnull align 8 dereferenceable(276) %0, ptr noundef nonnull align 8 dereferenceable(8) %1, ptr noundef nonnull align 8 dereferenceable(176) %2) unnamed_addr #0 align 2 {
  %4 = alloca ptr, align 8
  %5 = alloca ptr, align 8
  %6 = alloca ptr, align 8
  %7 = alloca [3 x [3 x float]], align 16
  %8 = alloca %"class.gmx::AnalysisHistogramSettings", align 4
  %9 = alloca %"class.gmx::AnalysisHistogramSettingsInitializer", align 4
  store ptr %0, ptr %4, align 8
  store ptr %1, ptr %5, align 8
  store ptr %2, ptr %6, align 8
  %10 = load ptr, ptr %4, align 8
  %11 = getelementptr inbounds %"class.gmx::analysismodules::(anonymous namespace)::Rdf", ptr %10, i32 0, i32 16
  %12 = load double, ptr %11, align 8
  %13 = fcmp ole double %12, 0.000000e+00
  br i1 %13, label %14, label %67

14:                                               ; preds = %3
  %15 = load ptr, ptr %6, align 8
  %16 = getelementptr inbounds %struct.t_trxframe, ptr %15, i32 0, i32 22
  %17 = getelementptr inbounds [3 x [3 x float]], ptr %16, i64 0, i64 0
  %18 = getelementptr inbounds [3 x [3 x float]], ptr %7, i64 0, i64 0
  call void @_ZL8copy_matPA3_KfPA3_f(ptr noundef %17, ptr noundef %18)
  %19 = load ptr, ptr %5, align 8
  %20 = call noundef zeroext i1 @_ZNK3gmx26TrajectoryAnalysisSettings6hasPBCEv(ptr noundef nonnull align 8 dereferenceable(8) %19)
  br i1 %20, label %21, label %46

21:                                               ; preds = %14
  %22 = getelementptr inbounds %"class.gmx::analysismodules::(anonymous namespace)::Rdf", ptr %10, i32 0, i32 19
  %23 = load i8, ptr %22, align 1
  %24 = trunc i8 %23 to i1
  br i1 %24, label %25, label %35

25:                                               ; preds = %21
  %26 = getelementptr inbounds [3 x [3 x float]], ptr %7, i64 0, i64 0
  %27 = getelementptr inbounds [3 x float], ptr %26, i64 0, i64 0
  %28 = getelementptr inbounds [3 x [3 x float]], ptr %7, i64 0, i64 1
  %29 = getelementptr inbounds [3 x float], ptr %28, i64 0, i64 1
  %30 = call noundef nonnull align 4 dereferenceable(4) ptr @_ZSt3maxIfERKT_S2_S2_(ptr noundef nonnull align 4 dereferenceable(4) %27, ptr noundef nonnull align 4 dereferenceable(4) %29)
  %31 = load float, ptr %30, align 4
  %32 = fmul float 2.000000e+00, %31
  %33 = getelementptr inbounds [3 x [3 x float]], ptr %7, i64 0, i64 2
  %34 = getelementptr inbounds [3 x float], ptr %33, i64 0, i64 2
  store float %32, ptr %34, align 8
  br label %35

35:                                               ; preds = %25, %21
  %36 = getelementptr inbounds %"class.gmx::analysismodules::(anonymous namespace)::Rdf", ptr %10, i32 0, i32 19
  %37 = load i8, ptr %36, align 1
  %38 = trunc i8 %37 to i1
  %39 = select i1 %38, i32 2, i32 0
  %40 = getelementptr inbounds [3 x [3 x float]], ptr %7, i64 0, i64 0
  %41 = call noundef float @_Z11max_cutoff27PbcTypePA3_Kf(i32 noundef %39, ptr noundef %40)
  %42 = fpext float %41 to double
  %43 = fmul double 0x3FEF5CFAACD9E83E, %42
  %44 = call double @sqrt(double noundef %43) #14
  %45 = getelementptr inbounds %"class.gmx::analysismodules::(anonymous namespace)::Rdf", ptr %10, i32 0, i32 16
  store double %44, ptr %45, align 8
  br label %66

46:                                               ; preds = %14
  %47 = getelementptr inbounds %"class.gmx::analysismodules::(anonymous namespace)::Rdf", ptr %10, i32 0, i32 19
  %48 = load i8, ptr %47, align 1
  %49 = trunc i8 %48 to i1
  br i1 %49, label %50, label %53

50:                                               ; preds = %46
  %51 = getelementptr inbounds [3 x [3 x float]], ptr %7, i64 0, i64 2
  %52 = getelementptr inbounds [3 x float], ptr %51, i64 0, i64 0
  call void @_ZL10clear_rvecPf(ptr noundef %52)
  br label %53

53:                                               ; preds = %50, %46
  %54 = getelementptr inbounds [3 x [3 x float]], ptr %7, i64 0, i64 0
  %55 = getelementptr inbounds [3 x float], ptr %54, i64 0, i64 0
  %56 = getelementptr inbounds [3 x [3 x float]], ptr %7, i64 0, i64 1
  %57 = getelementptr inbounds [3 x float], ptr %56, i64 0, i64 1
  %58 = getelementptr inbounds [3 x [3 x float]], ptr %7, i64 0, i64 2
  %59 = getelementptr inbounds [3 x float], ptr %58, i64 0, i64 2
  %60 = call noundef nonnull align 4 dereferenceable(4) ptr @_ZSt3maxIfERKT_S2_S2_(ptr noundef nonnull align 4 dereferenceable(4) %57, ptr noundef nonnull align 4 dereferenceable(4) %59)
  %61 = call noundef nonnull align 4 dereferenceable(4) ptr @_ZSt3maxIfERKT_S2_S2_(ptr noundef nonnull align 4 dereferenceable(4) %55, ptr noundef nonnull align 4 dereferenceable(4) %60)
  %62 = load float, ptr %61, align 4
  %63 = fmul float 3.000000e+00, %62
  %64 = fpext float %63 to double
  %65 = getelementptr inbounds %"class.gmx::analysismodules::(anonymous namespace)::Rdf", ptr %10, i32 0, i32 16
  store double %64, ptr %65, align 8
  br label %66

66:                                               ; preds = %53, %35
  br label %67

67:                                               ; preds = %66, %3
  %68 = getelementptr inbounds %"class.gmx::analysismodules::(anonymous namespace)::Rdf", ptr %10, i32 0, i32 15
  %69 = load double, ptr %68, align 8
  %70 = call noundef double @_ZN3gmx6squareIdEET_S1_(double noundef %69)
  %71 = fptrunc double %70 to float
  %72 = getelementptr inbounds %"class.gmx::analysismodules::(anonymous namespace)::Rdf", ptr %10, i32 0, i32 22
  store float %71, ptr %72, align 8
  %73 = getelementptr inbounds %"class.gmx::analysismodules::(anonymous namespace)::Rdf", ptr %10, i32 0, i32 16
  %74 = load double, ptr %73, align 8
  %75 = call noundef double @_ZN3gmx6squareIdEET_S1_(double noundef %74)
  %76 = fptrunc double %75 to float
  %77 = getelementptr inbounds %"class.gmx::analysismodules::(anonymous namespace)::Rdf", ptr %10, i32 0, i32 23
  store float %76, ptr %77, align 4
  %78 = getelementptr inbounds %"class.gmx::analysismodules::(anonymous namespace)::Rdf", ptr %10, i32 0, i32 12
  %79 = getelementptr inbounds %"class.gmx::analysismodules::(anonymous namespace)::Rdf", ptr %10, i32 0, i32 16
  %80 = load double, ptr %79, align 8
  %81 = fptrunc double %80 to float
  call void @_ZN3gmx20AnalysisNeighborhood9setCutoffEf(ptr noundef nonnull align 8 dereferenceable(8) %78, float noundef %81)
  %82 = getelementptr inbounds %"class.gmx::analysismodules::(anonymous namespace)::Rdf", ptr %10, i32 0, i32 10
  %83 = call noundef ptr @_ZNKSt19__shared_ptr_accessIN3gmx33AnalysisDataSimpleHistogramModuleELN9__gnu_cxx12_Lock_policyE2ELb0ELb0EEptEv(ptr noundef nonnull align 1 dereferenceable(1) %82) #14
  %84 = getelementptr inbounds %"class.gmx::analysismodules::(anonymous namespace)::Rdf", ptr %10, i32 0, i32 16
  %85 = load double, ptr %84, align 8
  %86 = fptrunc double %85 to float
  call void @_ZN3gmx18histogramFromRangeEff(ptr dead_on_unwind writable sret(%"class.gmx::AnalysisHistogramSettingsInitializer") align 4 %9, float noundef 0.000000e+00, float noundef %86)
  %87 = getelementptr inbounds %"class.gmx::analysismodules::(anonymous namespace)::Rdf", ptr %10, i32 0, i32 14
  %88 = load double, ptr %87, align 8
  %89 = fdiv double %88, 2.000000e+00
  %90 = fptrunc double %89 to float
  %91 = call noundef nonnull align 4 dereferenceable(19) ptr @_ZN3gmx36AnalysisHistogramSettingsInitializer8binWidthEf(ptr noundef nonnull align 4 dereferenceable(19) %9, float noundef %90)
  call void @_ZN3gmx25AnalysisHistogramSettingsC1ERKNS_36AnalysisHistogramSettingsInitializerE(ptr noundef nonnull align 4 dereferenceable(21) %8, ptr noundef nonnull align 4 dereferenceable(19) %91)
  call void @_ZN3gmx33AnalysisDataSimpleHistogramModule4initERKNS_25AnalysisHistogramSettingsE(ptr noundef nonnull align 8 dereferenceable(32) %83, ptr noundef nonnull align 4 dereferenceable(21) %8)
  ret void
}