; Function Attrs: mustprogress uwtable
define internal void @_ZN3gmx15analysismodules12_GLOBAL__N_13Rdf19initAfterFirstFrameERKNS_26TrajectoryAnalysisSettingsERK10t_trxframe(ptr noundef nonnull align 8 dereferenceable(276) %0, ptr noundef nonnull align 8 dereferenceable(8) %1, ptr nocapture noundef nonnull readonly align 8 dereferenceable(176) %2) unnamed_addr #0 align 2 {
  %4 = alloca %"class.gmx::AnalysisHistogramSettingsInitializer", align 4
  %5 = alloca [3 x [3 x float]], align 16
  %6 = alloca %"class.gmx::AnalysisHistogramSettings", align 4
  %7 = alloca %"class.gmx::AnalysisHistogramSettingsInitializer", align 4
  %8 = getelementptr inbounds i8, ptr %0, i64 248
  %9 = load double, ptr %8, align 8
  %10 = fcmp ugt double %9, 0.000000e+00
  br i1 %10, label %47, label %11

11:                                               ; preds = %3
  %12 = getelementptr inbounds i8, ptr %2, i64 116
  %13 = getelementptr inbounds i8, ptr %5, i64 24
  %14 = load <8 x float>, ptr %12, align 4
  store <8 x float> %14, ptr %5, align 16
  %15 = getelementptr inbounds i8, ptr %2, i64 148
  %16 = load float, ptr %15, align 4
  %17 = getelementptr inbounds i8, ptr %5, i64 32
  store float %16, ptr %17, align 16
  %18 = tail call noundef zeroext i1 @_ZNK3gmx26TrajectoryAnalysisSettings6hasPBCEv(ptr noundef nonnull align 8 dereferenceable(8) %1)
  %19 = getelementptr inbounds i8, ptr %0, i64 261
  %20 = load i8, ptr %19, align 1
  %21 = trunc i8 %20 to i1
  br i1 %18, label %22, label %35

22:                                               ; preds = %11
  br i1 %21, label %23, label %29

23:                                               ; preds = %22
  %24 = extractelement <8 x float> %14, i64 0
  %25 = extractelement <8 x float> %14, i64 4
  %26 = fcmp olt float %24, %25
  %27 = select i1 %26, float %25, float %24
  %28 = fmul float %27, 2.000000e+00
  store float %28, ptr %17, align 16
  br label %29

29:                                               ; preds = %23, %22
  %30 = phi i32 [ 2, %23 ], [ 0, %22 ]
  %31 = call noundef float @_Z11max_cutoff27PbcTypePA3_Kf(i32 noundef %30, ptr noundef nonnull %5)
  %32 = fpext float %31 to double
  %33 = fmul double %32, 0x3FEF5CFAACD9E83E
  %34 = call double @sqrt(double noundef %33) #20
  br label %.sink.split

35:                                               ; preds = %11
  br i1 %21, label %36, label %37

36:                                               ; preds = %35
  store <2 x float> zeroinitializer, ptr %13, align 8
  store float 0.000000e+00, ptr %17, align 16
  br label %37

37:                                               ; preds = %36, %35
  %38 = phi float [ 0.000000e+00, %36 ], [ %16, %35 ]
  %39 = extractelement <8 x float> %14, i64 4
  %40 = fcmp olt float %39, %38
  %41 = select i1 %40, float %38, float %39
  %42 = extractelement <8 x float> %14, i64 0
  %43 = fcmp olt float %42, %41
  %44 = select i1 %43, float %41, float %42
  %45 = fmul float %44, 3.000000e+00
  %46 = fpext float %45 to double
  br label %.sink.split

.sink.split:                                      ; preds = %37, %29
  %.sink = phi double [ %34, %29 ], [ %46, %37 ]
  store double %.sink, ptr %8, align 8
  br label %47

47:                                               ; preds = %.sink.split, %3
  %48 = phi double [ %9, %3 ], [ %.sink, %.sink.split ]
  %49 = getelementptr inbounds i8, ptr %0, i64 240
  %50 = load <2 x double>, ptr %49, align 8
  %51 = getelementptr inbounds i8, ptr %0, i64 264
  %52 = insertelement <2 x double> %50, double %48, i64 1
  %53 = fmul <2 x double> %52, %52
  %54 = fptrunc <2 x double> %53 to <2 x float>
  store <2 x float> %54, ptr %51, align 8
  %55 = getelementptr inbounds i8, ptr %0, i64 216
  %56 = fptrunc double %48 to float
  call void @_ZN3gmx20AnalysisNeighborhood9setCutoffEf(ptr noundef nonnull align 8 dereferenceable(8) %55, float noundef %56)
  %57 = getelementptr inbounds i8, ptr %0, i64 184
  %58 = load ptr, ptr %57, align 8
  %59 = load double, ptr %8, align 8
  %60 = fptrunc double %59 to float
  call void @llvm.lifetime.start.p0(i64 20, ptr nonnull %4)
  call void @_ZN3gmx36AnalysisHistogramSettingsInitializerC1Ev(ptr noundef nonnull align 4 dereferenceable(19) %4), !noalias !8
  store float 0.000000e+00, ptr %4, align 4, !noalias !8
  %61 = getelementptr inbounds i8, ptr %4, i64 4
  store float %60, ptr %61, align 4, !noalias !8
  call void @llvm.memcpy.p0.p0.i64(ptr noundef nonnull align 4 dereferenceable(20) %7, ptr noundef nonnull align 4 dereferenceable(20) %4, i64 20, i1 false)
  call void @llvm.lifetime.end.p0(i64 20, ptr nonnull %4)
  %62 = getelementptr inbounds i8, ptr %0, i64 232
  %63 = load double, ptr %62, align 8
  %64 = fmul double %63, 5.000000e-01
  %65 = fptrunc double %64 to float
  %66 = getelementptr inbounds i8, ptr %7, i64 8
  store float %65, ptr %66, align 4
  call void @_ZN3gmx25AnalysisHistogramSettingsC1ERKNS_36AnalysisHistogramSettingsInitializerE(ptr noundef nonnull align 4 dereferenceable(21) %6, ptr noundef nonnull align 4 dereferenceable(19) %7)
  call void @_ZN3gmx33AnalysisDataSimpleHistogramModule4initERKNS_25AnalysisHistogramSettingsE(ptr noundef nonnull align 8 dereferenceable(32) %58, ptr noundef nonnull align 4 dereferenceable(21) %6)
  ret void
}